; Function Attrs: mustprogress uwtable
define noundef double @_ZN6icu_7717GregorianCalendar11getEpochDayER10UErrorCode(ptr noundef nonnull align 8 dereferenceable(222) %0, ptr noundef nonnull align 4 dereferenceable(4) %1) unnamed_addr #1 align 2 {
  tail call void @_ZN6icu_778Calendar8completeER10UErrorCode(ptr noundef nonnull align 8 dereferenceable(192) %0, ptr noundef nonnull align 4 dereferenceable(4) %1)
  %3 = getelementptr inbounds nuw i8, ptr %0, i64 136
  %4 = load double, ptr %3, align 8, !tbaa !36
  %5 = fdiv double %4, 1.000000e+03
  %6 = getelementptr inbounds nuw i8, ptr %0, i64 68
  %7 = load i32, ptr %6, align 4, !tbaa !32
  %8 = getelementptr inbounds nuw i8, ptr %0, i64 72
  %9 = load i32, ptr %8, align 8, !tbaa !32
  %10 = add nsw i32 %9, %7
  %11 = sdiv i32 %10, 1000
  %12 = sitofp i32 %11 to double
  %13 = fadd double %5, %12
  %14 = fdiv double %13, 8.640000e+04
  %15 = tail call noundef double @uprv_floor_77(double noundef %14)
  ret double %15
}